target datalayout = "e-m:e-p270:32:32-p271:32:32-p272:64:64-i64:64-i128:128-f80:128-n8:16:32:64-S128"
target triple = "x86_64-pc-linux-gnu"

%struct.Vec_Int_t_ = type { i32, i32, ptr }
%struct.If_Obj_t_ = type { i32, i32, i32, i32, i32, i32, ptr, ptr, ptr, float, float, float, %union.anon, ptr, %struct.If_Cut_t_ }
%union.anon = type { ptr }
%struct.If_Cut_t_ = type <{ float, float, float, float, i32, i32, i32, i64, [0 x i32] }>
%struct.If_Man_t_ = type { ptr, ptr, ptr, ptr, ptr, ptr, ptr, ptr, [5 x i32], i32, float, float, float, float, i32, float, i32, i32, [4 x ptr], ptr, i32, i32, i32, ptr, [3 x [32 x i32]], i32, i32, i32, ptr, ptr, ptr, ptr, ptr, ptr, ptr, i32, i32, i32, [16 x i32], i32, i32, i32, i32, ptr, ptr, ptr, ptr, ptr, i32, i32, [32 x i32], [32 x i32], i32, i32, i32, i32, ptr, [16 x ptr], [16 x ptr], [16 x ptr], [16 x ptr], [16 x ptr], [16 x ptr], [16 x ptr], ptr, ptr, ptr, ptr, [32 x i8], i32, i32, i32, [6 x i64], [2 x i32], [2 x i32], ptr, [15 x i32], ptr, ptr, ptr, [16 x i32], ptr, ptr, ptr, ptr, [2 x i32], [2 x i32], [2 x ptr], ptr }
%struct.Vec_Ptr_t_ = type { i32, i32, ptr }

@.str.37 = private unnamed_addr constant [55 x i8] c"Gia_ManNodeIfToGia(): Computing local AIG has failed.\0A\00", align 1

; Function Attrs: inlinehint nounwind uwtable
define internal ptr @Vec_PtrEntry(ptr noundef %0, i32 noundef %1) #3 {
  %3 = alloca ptr, align 8
  %4 = alloca i32, align 4
  store ptr %0, ptr %3, align 8, !tbaa !151
  store i32 %1, ptr %4, align 4, !tbaa !42
  %5 = load ptr, ptr %3, align 8, !tbaa !151
  %6 = getelementptr inbounds nuw %struct.Vec_Ptr_t_, ptr %5, i32 0, i32 2
  %7 = load ptr, ptr %6, align 8, !tbaa !154
  %8 = load i32, ptr %4, align 4, !tbaa !42
  %9 = sext i32 %8 to i64
  %10 = getelementptr inbounds ptr, ptr %7, i64 %9
  %11 = load ptr, ptr %10, align 8, !tbaa !3
  ret ptr %11
}

; Function Attrs: inlinehint nounwind uwtable
define internal i32 @Vec_PtrSize(ptr noundef %0) #3 {
  %2 = alloca ptr, align 8
  store ptr %0, ptr %2, align 8, !tbaa !151
  %3 = load ptr, ptr %2, align 8, !tbaa !151
  %4 = getelementptr inbounds nuw %struct.Vec_Ptr_t_, ptr %3, i32 0, i32 1
  %5 = load i32, ptr %4, align 4, !tbaa !152
  ret i32 %5
}

; Function Attrs: inlinehint nounwind uwtable
define internal void @Vec_PtrClear(ptr noundef %0) #3 {
  %2 = alloca ptr, align 8
  store ptr %0, ptr %2, align 8, !tbaa !151
  %3 = load ptr, ptr %2, align 8, !tbaa !151
  %4 = getelementptr inbounds nuw %struct.Vec_Ptr_t_, ptr %3, i32 0, i32 1
  store i32 0, ptr %4, align 4, !tbaa !152
  ret void
}

; Function Attrs: inlinehint nounwind uwtable
define internal void @If_CutSetDataInt(ptr noundef %0, i32 noundef %1) #3 {
  %3 = alloca ptr, align 8
  %4 = alloca i32, align 4
  store ptr %0, ptr %3, align 8, !tbaa !169
  store i32 %1, ptr %4, align 4, !tbaa !42
  %5 = load i32, ptr %4, align 4, !tbaa !42
  %6 = load ptr, ptr %3, align 8, !tbaa !169
  store i32 %5, ptr %6, align 4, !tbaa !42
  ret void
}

; Function Attrs: inlinehint nounwind uwtable
define internal i32 @Vec_IntEntry(ptr noundef %0, i32 noundef %1) #3 {
  %3 = alloca ptr, align 8
  %4 = alloca i32, align 4
  store ptr %0, ptr %3, align 8, !tbaa !74
  store i32 %1, ptr %4, align 4, !tbaa !42
  %5 = load ptr, ptr %3, align 8, !tbaa !74
  %6 = getelementptr inbounds nuw %struct.Vec_Int_t_, ptr %5, i32 0, i32 2
  %7 = load ptr, ptr %6, align 8, !tbaa !94
  %8 = load i32, ptr %4, align 4, !tbaa !42
  %9 = sext i32 %8 to i64
  %10 = getelementptr inbounds i32, ptr %7, i64 %9
  %11 = load i32, ptr %10, align 4, !tbaa !42
  ret i32 %11
}

; Function Attrs: inlinehint nounwind uwtable
define internal ptr @If_ManObj(ptr noundef %0, i32 noundef %1) #3 {
  %3 = alloca ptr, align 8
  %4 = alloca i32, align 4
  store ptr %0, ptr %3, align 8, !tbaa !129
  store i32 %1, ptr %4, align 4, !tbaa !42
  %5 = load ptr, ptr %3, align 8, !tbaa !129
  %6 = getelementptr inbounds nuw %struct.If_Man_t_, ptr %5, i32 0, i32 5
  %7 = load ptr, ptr %6, align 8, !tbaa !139
  %8 = load i32, ptr %4, align 4, !tbaa !42
  %9 = call ptr @Vec_PtrEntry(ptr noundef %7, i32 noundef %8)
  ret ptr %9
}

; Function Attrs: inlinehint nounwind uwtable
define internal ptr @If_ObjCutBest(ptr noundef %0) #3 {
  %2 = alloca ptr, align 8
  store ptr %0, ptr %2, align 8, !tbaa !131
  %3 = load ptr, ptr %2, align 8, !tbaa !131
  %4 = getelementptr inbounds nuw %struct.If_Obj_t_, ptr %3, i32 0, i32 14
  ret ptr %4
}

; Function Attrs: nounwind uwtable
define i32 @Gia_ManNodeIfToGia(ptr noundef %0, ptr noundef %1, ptr noundef %2, ptr noundef %3, i32 noundef %4) #0 {
  %6 = alloca i32, align 4
  %7 = alloca ptr, align 8
  %8 = alloca ptr, align 8
  %9 = alloca ptr, align 8
  %10 = alloca ptr, align 8
  %11 = alloca i32, align 4
  %12 = alloca ptr, align 8
  %13 = alloca ptr, align 8
  %14 = alloca i32, align 4
  %15 = alloca i32, align 4
  %16 = alloca i32, align 4
  store ptr %0, ptr %7, align 8, !tbaa !40
  store ptr %1, ptr %8, align 8, !tbaa !129
  store ptr %2, ptr %9, align 8, !tbaa !131
  store ptr %3, ptr %10, align 8, !tbaa !74
  store i32 %4, ptr %11, align 4, !tbaa !42
  call void @llvm.lifetime.start.p0(i64 8, ptr %12) #14
  call void @llvm.lifetime.start.p0(i64 8, ptr %13) #14
  call void @llvm.lifetime.start.p0(i64 4, ptr %14) #14
  call void @llvm.lifetime.start.p0(i64 4, ptr %15) #14
  %17 = load ptr, ptr %9, align 8, !tbaa !131
  %18 = call ptr @If_ObjCutBest(ptr noundef %17)
  store ptr %18, ptr %12, align 8, !tbaa !169
  store i32 0, ptr %14, align 4, !tbaa !42
  br label %19

19:                                               ; preds = %46, %5
  %20 = load i32, ptr %14, align 4, !tbaa !42
  %21 = load ptr, ptr %12, align 8, !tbaa !169
  %22 = getelementptr inbounds nuw %struct.If_Cut_t_, ptr %21, i32 0, i32 7
  %23 = load i64, ptr %22, align 4
  %24 = lshr i64 %23, 24
  %25 = and i64 %24, 255
  %26 = trunc i64 %25 to i32
  %27 = icmp slt i32 %20, %26
  br i1 %27, label %28, label %38

28:                                               ; preds = %19
  %29 = load ptr, ptr %8, align 8, !tbaa !129
  %30 = load ptr, ptr %12, align 8, !tbaa !169
  %31 = getelementptr inbounds nuw %struct.If_Cut_t_, ptr %30, i32 0, i32 8
  %32 = load i32, ptr %14, align 4, !tbaa !42
  %33 = sext i32 %32 to i64
  %34 = getelementptr inbounds [0 x i32], ptr %31, i64 0, i64 %33
  %35 = load i32, ptr %34, align 4, !tbaa !42
  %36 = call ptr @If_ManObj(ptr noundef %29, i32 noundef %35)
  store ptr %36, ptr %13, align 8, !tbaa !131
  %37 = icmp ne ptr %36, null
  br label %38

38:                                               ; preds = %28, %19
  %39 = phi i1 [ false, %19 ], [ %37, %28 ]
  br i1 %39, label %40, label %49

40:                                               ; preds = %38
  %41 = load ptr, ptr %13, align 8, !tbaa !131
  %42 = call ptr @If_ObjCutBest(ptr noundef %41)
  %43 = load ptr, ptr %10, align 8, !tbaa !74
  %44 = load i32, ptr %14, align 4, !tbaa !42
  %45 = call i32 @Vec_IntEntry(ptr noundef %43, i32 noundef %44)
  call void @If_CutSetDataInt(ptr noundef %42, i32 noundef %45)
  br label %46

46:                                               ; preds = %40
  %47 = load i32, ptr %14, align 4, !tbaa !42
  %48 = add nsw i32 %47, 1
  store i32 %48, ptr %14, align 4, !tbaa !42
  br label %19, !llvm.loop !210

49:                                               ; preds = %38
  %50 = load ptr, ptr %8, align 8, !tbaa !129
  %51 = getelementptr inbounds nuw %struct.If_Man_t_, ptr %50, i32 0, i32 7
  %52 = load ptr, ptr %51, align 8, !tbaa !211
  call void @Vec_PtrClear(ptr noundef %52)
  %53 = load ptr, ptr %7, align 8, !tbaa !40
  %54 = load ptr, ptr %8, align 8, !tbaa !129
  %55 = load ptr, ptr %9, align 8, !tbaa !131
  %56 = load ptr, ptr %8, align 8, !tbaa !129
  %57 = getelementptr inbounds nuw %struct.If_Man_t_, ptr %56, i32 0, i32 7
  %58 = load ptr, ptr %57, align 8, !tbaa !211
  %59 = load i32, ptr %11, align 4, !tbaa !42
  %60 = call i32 @Gia_ManNodeIfToGia_rec(ptr noundef %53, ptr noundef %54, ptr noundef %55, ptr noundef %58, i32 noundef %59)
  store i32 %60, ptr %15, align 4, !tbaa !42
  %61 = load i32, ptr %15, align 4, !tbaa !42
  %62 = icmp eq i32 %61, -1
  br i1 %62, label %63, label %64

63:                                               ; preds = %49
  call void (i32, ptr, ...) @Abc_Print(i32 noundef -1, ptr noundef @.str.37)
  store i32 -1, ptr %6, align 4
  store i32 1, ptr %16, align 4
  br label %115

64:                                               ; preds = %49
  store i32 0, ptr %14, align 4, !tbaa !42
  br label %65

65:                                               ; preds = %89, %64
  %66 = load i32, ptr %14, align 4, !tbaa !42
  %67 = load ptr, ptr %12, align 8, !tbaa !169
  %68 = getelementptr inbounds nuw %struct.If_Cut_t_, ptr %67, i32 0, i32 7
  %69 = load i64, ptr %68, align 4
  %70 = lshr i64 %69, 24
  %71 = and i64 %70, 255
  %72 = trunc i64 %71 to i32
  %73 = icmp slt i32 %66, %72
  br i1 %73, label %74, label %84

74:                                               ; preds = %65
  %75 = load ptr, ptr %8, align 8, !tbaa !129
  %76 = load ptr, ptr %12, align 8, !tbaa !169
  %77 = getelementptr inbounds nuw %struct.If_Cut_t_, ptr %76, i32 0, i32 8
  %78 = load i32, ptr %14, align 4, !tbaa !42
  %79 = sext i32 %78 to i64
  %80 = getelementptr inbounds [0 x i32], ptr %77, i64 0, i64 %79
  %81 = load i32, ptr %80, align 4, !tbaa !42
  %82 = call ptr @If_ManObj(ptr noundef %75, i32 noundef %81)
  store ptr %82, ptr %13, align 8, !tbaa !131
  %83 = icmp ne ptr %82, null
  br label %84

84:                                               ; preds = %74, %65
  %85 = phi i1 [ false, %65 ], [ %83, %74 ]
  br i1 %85, label %86, label %92

86:                                               ; preds = %84
  %87 = load ptr, ptr %13, align 8, !tbaa !131
  %88 = call ptr @If_ObjCutBest(ptr noundef %87)
  call void @If_CutSetDataInt(ptr noundef %88, i32 noundef 0)
  br label %89

89:                                               ; preds = %86
  %90 = load i32, ptr %14, align 4, !tbaa !42
  %91 = add nsw i32 %90, 1
  store i32 %91, ptr %14, align 4, !tbaa !42
  br label %65, !llvm.loop !212

92:                                               ; preds = %84
  store i32 0, ptr %14, align 4, !tbaa !42
  br label %93

93:                                               ; preds = %110, %92
  %94 = load i32, ptr %14, align 4, !tbaa !42
  %95 = load ptr, ptr %8, align 8, !tbaa !129
  %96 = getelementptr inbounds nuw %struct.If_Man_t_, ptr %95, i32 0, i32 7
  %97 = load ptr, ptr %96, align 8, !tbaa !211
  %98 = call i32 @Vec_PtrSize(ptr noundef %97)
  %99 = icmp slt i32 %94, %98
  br i1 %99, label %100, label %106

100:                                              ; preds = %93
  %101 = load ptr, ptr %8, align 8, !tbaa !129
  %102 = getelementptr inbounds nuw %struct.If_Man_t_, ptr %101, i32 0, i32 7
  %103 = load ptr, ptr %102, align 8, !tbaa !211
  %104 = load i32, ptr %14, align 4, !tbaa !42
  %105 = call ptr @Vec_PtrEntry(ptr noundef %103, i32 noundef %104)
  store ptr %105, ptr %12, align 8, !tbaa !169
  br label %106

106:                                              ; preds = %100, %93
  %107 = phi i1 [ false, %93 ], [ true, %100 ]
  br i1 %107, label %108, label %113

108:                                              ; preds = %106
  %109 = load ptr, ptr %12, align 8, !tbaa !169
  call void @If_CutSetDataInt(ptr noundef %109, i32 noundef 0)
  br label %110

110:                                              ; preds = %108
  %111 = load i32, ptr %14, align 4, !tbaa !42
  %112 = add nsw i32 %111, 1
  store i32 %112, ptr %14, align 4, !tbaa !42
  br label %93, !llvm.loop !213

113:                                              ; preds = %106
  %114 = load i32, ptr %15, align 4, !tbaa !42
  store i32 %114, ptr %6, align 4
  store i32 1, ptr %16, align 4
  br label %115

115:                                              ; preds = %113, %63
  call void @llvm.lifetime.end.p0(i64 4, ptr %15) #14
  call void @llvm.lifetime.end.p0(i64 4, ptr %14) #14
  call void @llvm.lifetime.end.p0(i64 8, ptr %13) #14
  call void @llvm.lifetime.end.p0(i64 8, ptr %12) #14
  %116 = load i32, ptr %6, align 4
  ret i32 %116
}