; Function Attrs: nounwind uwtable
define i32 @Gia_ManNodeIfToGia(ptr noundef %0, ptr noundef %1, ptr noundef %2, ptr noundef readonly captures(none) %3, i32 noundef %4) local_unnamed_addr #4 {
  %6 = getelementptr inbounds nuw i8, ptr %2, i64 116
  %7 = getelementptr inbounds nuw i8, ptr %2, i64 108
  %8 = load i64, ptr %7, align 4
  %9 = and i64 %8, 4278190080
  %.not52 = icmp eq i64 %9, 0
  br i1 %.not52, label %.critedge, label %.lr.ph

.lr.ph:                                           ; preds = %5
  %10 = getelementptr i8, ptr %1, i64 40
  %.val43 = load ptr, ptr %10, align 8, !tbaa !117
  %11 = getelementptr i8, ptr %.val43, i64 8
  %.val43.val = load ptr, ptr %11, align 8, !tbaa !129
  %12 = getelementptr i8, ptr %3, i64 8
  br label %13

13:                                               ; preds = %.lr.ph, %19
  %indvars.iv = phi i64 [ 0, %.lr.ph ], [ %indvars.iv.next, %19 ]
  %14 = getelementptr inbounds nuw [0 x i32], ptr %6, i64 0, i64 %indvars.iv
  %15 = load i32, ptr %14, align 4, !tbaa !48
  %16 = sext i32 %15 to i64
  %17 = getelementptr inbounds ptr, ptr %.val43.val, i64 %16
  %18 = load ptr, ptr %17, align 8, !tbaa !130
  %.not = icmp eq ptr %18, null
  br i1 %.not, label %.critedge, label %19

19:                                               ; preds = %13
  %20 = getelementptr inbounds nuw i8, ptr %18, i64 80
  %.val = load ptr, ptr %12, align 8, !tbaa !47
  %21 = getelementptr inbounds nuw i32, ptr %.val, i64 %indvars.iv
  %22 = load i32, ptr %21, align 4, !tbaa !48
  store i32 %22, ptr %20, align 4, !tbaa !48
  %indvars.iv.next = add nuw nsw i64 %indvars.iv, 1
  %23 = load i64, ptr %7, align 4
  %24 = lshr i64 %23, 24
  %25 = and i64 %24, 255
  %26 = icmp samesign ult i64 %indvars.iv.next, %25
  br i1 %26, label %13, label %.critedge, !llvm.loop !199

.critedge:                                        ; preds = %13, %19, %5
  %27 = getelementptr inbounds nuw i8, ptr %1, i64 56
  %28 = load ptr, ptr %27, align 8, !tbaa !200
  %29 = getelementptr inbounds nuw i8, ptr %28, i64 4
  store i32 0, ptr %29, align 4, !tbaa !126
  %30 = tail call i32 @Gia_ManNodeIfToGia_rec(ptr noundef %0, ptr noundef %1, ptr noundef nonnull %2, ptr noundef %28, i32 noundef %4)
  %31 = icmp eq i32 %30, -1
  br i1 %31, label %36, label %.preheader

.preheader:                                       ; preds = %.critedge
  %32 = load i64, ptr %7, align 4
  %33 = and i64 %32, 4278190080
  %.not53 = icmp eq i64 %33, 0
  br i1 %.not53, label %.critedge2, label %.lr.ph47

.lr.ph47:                                         ; preds = %.preheader
  %34 = getelementptr i8, ptr %1, i64 40
  %.val42 = load ptr, ptr %34, align 8, !tbaa !117
  %35 = getelementptr i8, ptr %.val42, i64 8
  %.val42.val = load ptr, ptr %35, align 8, !tbaa !129
  br label %37

36:                                               ; preds = %.critedge
  tail call void (i32, ptr, ...) @Abc_Print(i32 noundef -1, ptr noundef nonnull @.str.37)
  br label %.critedge4

37:                                               ; preds = %.lr.ph47, %43
  %indvars.iv55 = phi i64 [ 0, %.lr.ph47 ], [ %indvars.iv.next56, %43 ]
  %38 = getelementptr inbounds nuw [0 x i32], ptr %6, i64 0, i64 %indvars.iv55
  %39 = load i32, ptr %38, align 4, !tbaa !48
  %40 = sext i32 %39 to i64
  %41 = getelementptr inbounds ptr, ptr %.val42.val, i64 %40
  %42 = load ptr, ptr %41, align 8, !tbaa !130
  %.not39 = icmp eq ptr %42, null
  br i1 %.not39, label %.critedge2, label %43

43:                                               ; preds = %37
  %44 = getelementptr inbounds nuw i8, ptr %42, i64 80
  store i32 0, ptr %44, align 4, !tbaa !48
  %indvars.iv.next56 = add nuw nsw i64 %indvars.iv55, 1
  %45 = load i64, ptr %7, align 4
  %46 = lshr i64 %45, 24
  %47 = and i64 %46, 255
  %48 = icmp samesign ult i64 %indvars.iv.next56, %47
  br i1 %48, label %37, label %.critedge2, !llvm.loop !201

.critedge2:                                       ; preds = %37, %43, %.preheader
  %49 = load ptr, ptr %27, align 8, !tbaa !200
  %50 = getelementptr i8, ptr %49, i64 4
  %.val4049 = load i32, ptr %50, align 4, !tbaa !126
  %51 = icmp sgt i32 %.val4049, 0
  br i1 %51, label %.lr.ph51, label %.critedge4

.lr.ph51:                                         ; preds = %.critedge2
  %52 = getelementptr i8, ptr %49, i64 8
  %.val41 = load ptr, ptr %52, align 8, !tbaa !129
  br label %53

53:                                               ; preds = %.lr.ph51, %53
  %indvars.iv58 = phi i64 [ 0, %.lr.ph51 ], [ %indvars.iv.next59, %53 ]
  %54 = getelementptr inbounds nuw ptr, ptr %.val41, i64 %indvars.iv58
  %55 = load ptr, ptr %54, align 8, !tbaa !130
  store i32 0, ptr %55, align 4, !tbaa !48
  %indvars.iv.next59 = add nuw nsw i64 %indvars.iv58, 1
  %.val40 = load i32, ptr %50, align 4, !tbaa !126
  %56 = sext i32 %.val40 to i64
  %57 = icmp slt i64 %indvars.iv.next59, %56
  br i1 %57, label %53, label %.critedge4, !llvm.loop !202

.critedge4:                                       ; preds = %53, %.critedge2, %36
  ret i32 %30
}